target datalayout = "e-m:e-p270:32:32-p271:32:32-p272:64:64-i64:64-i128:128-f80:128-n8:16:32:64-S128"
target triple = "x86_64-pc-linux-gnu"

%struct.uv__queue = type { ptr, ptr }
%struct.uv__io_s = type { ptr, %struct.uv__queue, %struct.uv__queue, i32, i32, i32 }
%struct.uv_stream_s = type { ptr, ptr, i32, ptr, %struct.uv__queue, %union.anon, ptr, i32, i64, ptr, ptr, ptr, ptr, %struct.uv__io_s, %struct.uv__queue, %struct.uv__queue, ptr, i32, i32, ptr }
%union.anon = type { [4 x ptr] }
%struct.uv__stream_queued_fds_s = type { i32, i32, [1 x i32] }

; Function Attrs: nounwind uwtable
define hidden i32 @uv__stream_open(ptr noundef %0, i32 noundef %1, i32 noundef %2) #0 {
  %4 = alloca i32, align 4
  %5 = alloca ptr, align 8
  %6 = alloca i32, align 4
  %7 = alloca i32, align 4
  store ptr %0, ptr %5, align 8
  store i32 %1, ptr %6, align 4
  store i32 %2, ptr %7, align 4
  %8 = load ptr, ptr %5, align 8
  %9 = getelementptr inbounds nuw %struct.uv_stream_s, ptr %8, i32 0, i32 13
  %10 = getelementptr inbounds nuw %struct.uv__io_s, ptr %9, i32 0, i32 5
  %11 = load i32, ptr %10, align 8
  %12 = icmp eq i32 %11, -1
  br i1 %12, label %21, label %13

13:                                               ; preds = %3
  %14 = load ptr, ptr %5, align 8
  %15 = getelementptr inbounds nuw %struct.uv_stream_s, ptr %14, i32 0, i32 13
  %16 = getelementptr inbounds nuw %struct.uv__io_s, ptr %15, i32 0, i32 5
  %17 = load i32, ptr %16, align 8
  %18 = load i32, ptr %6, align 4
  %19 = icmp eq i32 %17, %18
  br i1 %19, label %21, label %20

20:                                               ; preds = %13
  store i32 -16, ptr %4, align 4
  br label %65

21:                                               ; preds = %13, %3
  %22 = load i32, ptr %7, align 4
  %23 = load ptr, ptr %5, align 8
  %24 = getelementptr inbounds nuw %struct.uv_stream_s, ptr %23, i32 0, i32 7
  %25 = load i32, ptr %24, align 8
  %26 = or i32 %25, %22
  store i32 %26, ptr %24, align 8
  %27 = load ptr, ptr %5, align 8
  %28 = getelementptr inbounds nuw %struct.uv_stream_s, ptr %27, i32 0, i32 2
  %29 = load i32, ptr %28, align 8
  %30 = icmp eq i32 %29, 12
  br i1 %30, label %31, label %60

31:                                               ; preds = %21
  %32 = load ptr, ptr %5, align 8
  %33 = getelementptr inbounds nuw %struct.uv_stream_s, ptr %32, i32 0, i32 7
  %34 = load i32, ptr %33, align 8
  %35 = and i32 %34, 16777216
  %36 = icmp ne i32 %35, 0
  br i1 %36, label %37, label %45

37:                                               ; preds = %31
  %38 = load i32, ptr %6, align 4
  %39 = call i32 @uv__tcp_nodelay(i32 noundef %38, i32 noundef 1)
  %40 = icmp ne i32 %39, 0
  br i1 %40, label %41, label %45

41:                                               ; preds = %37
  %42 = call ptr @__errno_location() #9
  %43 = load i32, ptr %42, align 4
  %44 = sub nsw i32 0, %43
  store i32 %44, ptr %4, align 4
  br label %65

45:                                               ; preds = %37, %31
  %46 = load ptr, ptr %5, align 8
  %47 = getelementptr inbounds nuw %struct.uv_stream_s, ptr %46, i32 0, i32 7
  %48 = load i32, ptr %47, align 8
  %49 = and i32 %48, 33554432
  %50 = icmp ne i32 %49, 0
  br i1 %50, label %51, label %59

51:                                               ; preds = %45
  %52 = load i32, ptr %6, align 4
  %53 = call i32 @uv__tcp_keepalive(i32 noundef %52, i32 noundef 1, i32 noundef 60)
  %54 = icmp ne i32 %53, 0
  br i1 %54, label %55, label %59

55:                                               ; preds = %51
  %56 = call ptr @__errno_location() #9
  %57 = load i32, ptr %56, align 4
  %58 = sub nsw i32 0, %57
  store i32 %58, ptr %4, align 4
  br label %65

59:                                               ; preds = %51, %45
  br label %60

60:                                               ; preds = %59, %21
  %61 = load i32, ptr %6, align 4
  %62 = load ptr, ptr %5, align 8
  %63 = getelementptr inbounds nuw %struct.uv_stream_s, ptr %62, i32 0, i32 13
  %64 = getelementptr inbounds nuw %struct.uv__io_s, ptr %63, i32 0, i32 5
  store i32 %61, ptr %64, align 8
  store i32 0, ptr %4, align 4
  br label %65

65:                                               ; preds = %60, %55, %41, %20
  %66 = load i32, ptr %4, align 4
  ret i32 %66
}

; Function Attrs: nounwind uwtable
define dso_local i32 @uv_accept(ptr noundef %0, ptr noundef %1) #0 {
  %3 = alloca i32, align 4
  %4 = alloca ptr, align 8
  %5 = alloca ptr, align 8
  %6 = alloca i32, align 4
  %7 = alloca i32, align 4
  %8 = alloca ptr, align 8
  store ptr %0, ptr %4, align 8
  store ptr %1, ptr %5, align 8
  call void @llvm.lifetime.start.p0(i64 4, ptr %6) #8
  %9 = load ptr, ptr %4, align 8
  %10 = getelementptr inbounds nuw %struct.uv_stream_s, ptr %9, i32 0, i32 18
  %11 = load i32, ptr %10, align 4
  %12 = icmp eq i32 %11, -1
  br i1 %12, label %13, label %14

13:                                               ; preds = %2
  store i32 -11, ptr %3, align 4
  store i32 1, ptr %7, align 4
  br label %104

14:                                               ; preds = %2
  %15 = load ptr, ptr %5, align 8
  %16 = getelementptr inbounds nuw %struct.uv_stream_s, ptr %15, i32 0, i32 2
  %17 = load i32, ptr %16, align 8
  switch i32 %17, label %46 [
    i32 7, label %18
    i32 12, label %18
    i32 15, label %32
  ]

18:                                               ; preds = %14, %14
  %19 = load ptr, ptr %5, align 8
  %20 = load ptr, ptr %4, align 8
  %21 = getelementptr inbounds nuw %struct.uv_stream_s, ptr %20, i32 0, i32 18
  %22 = load i32, ptr %21, align 4
  %23 = call i32 @uv__stream_open(ptr noundef %19, i32 noundef %22, i32 noundef 49152)
  store i32 %23, ptr %6, align 4
  %24 = load i32, ptr %6, align 4
  %25 = icmp ne i32 %24, 0
  br i1 %25, label %26, label %31

26:                                               ; preds = %18
  %27 = load ptr, ptr %4, align 8
  %28 = getelementptr inbounds nuw %struct.uv_stream_s, ptr %27, i32 0, i32 18
  %29 = load i32, ptr %28, align 4
  %30 = call i32 @uv__close(i32 noundef %29)
  br label %52

31:                                               ; preds = %18
  br label %47

32:                                               ; preds = %14
  %33 = load ptr, ptr %5, align 8
  %34 = load ptr, ptr %4, align 8
  %35 = getelementptr inbounds nuw %struct.uv_stream_s, ptr %34, i32 0, i32 18
  %36 = load i32, ptr %35, align 4
  %37 = call i32 @uv_udp_open(ptr noundef %33, i32 noundef %36)
  store i32 %37, ptr %6, align 4
  %38 = load i32, ptr %6, align 4
  %39 = icmp ne i32 %38, 0
  br i1 %39, label %40, label %45

40:                                               ; preds = %32
  %41 = load ptr, ptr %4, align 8
  %42 = getelementptr inbounds nuw %struct.uv_stream_s, ptr %41, i32 0, i32 18
  %43 = load i32, ptr %42, align 4
  %44 = call i32 @uv__close(i32 noundef %43)
  br label %52

45:                                               ; preds = %32
  br label %47

46:                                               ; preds = %14
  store i32 -22, ptr %3, align 4
  store i32 1, ptr %7, align 4
  br label %104

47:                                               ; preds = %45, %31
  %48 = load ptr, ptr %5, align 8
  %49 = getelementptr inbounds nuw %struct.uv_stream_s, ptr %48, i32 0, i32 7
  %50 = load i32, ptr %49, align 8
  %51 = or i32 %50, 8192
  store i32 %51, ptr %49, align 8
  br label %52

52:                                               ; preds = %47, %40, %26
  %53 = load ptr, ptr %4, align 8
  %54 = getelementptr inbounds nuw %struct.uv_stream_s, ptr %53, i32 0, i32 19
  %55 = load ptr, ptr %54, align 8
  %56 = icmp ne ptr %55, null
  br i1 %56, label %57, label %90

57:                                               ; preds = %52
  call void @llvm.lifetime.start.p0(i64 8, ptr %8) #8
  %58 = load ptr, ptr %4, align 8
  %59 = getelementptr inbounds nuw %struct.uv_stream_s, ptr %58, i32 0, i32 19
  %60 = load ptr, ptr %59, align 8
  store ptr %60, ptr %8, align 8
  %61 = load ptr, ptr %8, align 8
  %62 = getelementptr inbounds nuw %struct.uv__stream_queued_fds_s, ptr %61, i32 0, i32 2
  %63 = getelementptr inbounds [1 x i32], ptr %62, i64 0, i64 0
  %64 = load i32, ptr %63, align 4
  %65 = load ptr, ptr %4, align 8
  %66 = getelementptr inbounds nuw %struct.uv_stream_s, ptr %65, i32 0, i32 18
  store i32 %64, ptr %66, align 4
  %67 = load ptr, ptr %8, align 8
  %68 = getelementptr inbounds nuw %struct.uv__stream_queued_fds_s, ptr %67, i32 0, i32 1
  %69 = load i32, ptr %68, align 4
  %70 = add i32 %69, -1
  store i32 %70, ptr %68, align 4
  %71 = icmp eq i32 %70, 0
  br i1 %71, label %72, label %76

72:                                               ; preds = %57
  %73 = load ptr, ptr %8, align 8
  call void @uv__free(ptr noundef %73)
  %74 = load ptr, ptr %4, align 8
  %75 = getelementptr inbounds nuw %struct.uv_stream_s, ptr %74, i32 0, i32 19
  store ptr null, ptr %75, align 8
  br label %89

76:                                               ; preds = %57
  %77 = load ptr, ptr %8, align 8
  %78 = getelementptr inbounds nuw %struct.uv__stream_queued_fds_s, ptr %77, i32 0, i32 2
  %79 = getelementptr inbounds [1 x i32], ptr %78, i64 0, i64 0
  %80 = load ptr, ptr %8, align 8
  %81 = getelementptr inbounds nuw %struct.uv__stream_queued_fds_s, ptr %80, i32 0, i32 2
  %82 = getelementptr inbounds [1 x i32], ptr %81, i64 0, i64 0
  %83 = getelementptr inbounds i32, ptr %82, i64 1
  %84 = load ptr, ptr %8, align 8
  %85 = getelementptr inbounds nuw %struct.uv__stream_queued_fds_s, ptr %84, i32 0, i32 1
  %86 = load i32, ptr %85, align 4
  %87 = zext i32 %86 to i64
  %88 = mul i64 %87, 4
  call void @llvm.memmove.p0.p0.i64(ptr align 4 %79, ptr align 4 %83, i64 %88, i1 false)
  br label %89

89:                                               ; preds = %76, %72
  call void @llvm.lifetime.end.p0(i64 8, ptr %8) #8
  br label %102

90:                                               ; preds = %52
  %91 = load ptr, ptr %4, align 8
  %92 = getelementptr inbounds nuw %struct.uv_stream_s, ptr %91, i32 0, i32 18
  store i32 -1, ptr %92, align 4
  %93 = load i32, ptr %6, align 4
  %94 = icmp eq i32 %93, 0
  br i1 %94, label %95, label %101

95:                                               ; preds = %90
  %96 = load ptr, ptr %4, align 8
  %97 = getelementptr inbounds nuw %struct.uv_stream_s, ptr %96, i32 0, i32 1
  %98 = load ptr, ptr %97, align 8
  %99 = load ptr, ptr %4, align 8
  %100 = getelementptr inbounds nuw %struct.uv_stream_s, ptr %99, i32 0, i32 13
  call void @uv__io_start(ptr noundef %98, ptr noundef %100, i32 noundef 1)
  br label %101

101:                                              ; preds = %95, %90
  br label %102

102:                                              ; preds = %101, %89
  %103 = load i32, ptr %6, align 4
  store i32 %103, ptr %3, align 4
  store i32 1, ptr %7, align 4
  br label %104

104:                                              ; preds = %102, %46, %13
  call void @llvm.lifetime.end.p0(i64 4, ptr %6) #8
  %105 = load i32, ptr %3, align 4
  ret i32 %105
}