; Function Attrs: nounwind uwtable
define dso_local i32 @uv_accept(ptr noundef %0, ptr noundef %1) local_unnamed_addr #0 {
  %3 = getelementptr inbounds nuw i8, ptr %0, i64 236
  %4 = load i32, ptr %3, align 4
  %5 = icmp eq i32 %4, -1
  br i1 %5, label %58, label %6

6:                                                ; preds = %2
  %7 = getelementptr inbounds nuw i8, ptr %1, i64 16
  %8 = load i32, ptr %7, align 8
  switch i32 %8, label %58 [
    i32 7, label %9
    i32 12, label %9
    i32 15, label %29
  ]

9:                                                ; preds = %6, %6
  %10 = getelementptr inbounds nuw i8, ptr %1, i64 184
  %11 = load i32, ptr %10, align 8
  %12 = icmp eq i32 %11, -1
  %13 = icmp eq i32 %11, %4
  %or.cond.i = or i1 %12, %13
  br i1 %or.cond.i, label %14, label %uv__stream_open.exit.thread38

14:                                               ; preds = %9
  %15 = getelementptr inbounds nuw i8, ptr %1, i64 88
  %16 = load i32, ptr %15, align 8
  %17 = or i32 %16, 49152
  store i32 %17, ptr %15, align 8
  %18 = icmp eq i32 %8, 12
  br i1 %18, label %19, label %uv__stream_open.exit.thread

19:                                               ; preds = %14
  %20 = and i32 %16, 16777216
  %.not.i = icmp eq i32 %20, 0
  br i1 %.not.i, label %23, label %21

21:                                               ; preds = %19
  %22 = tail call i32 @uv__tcp_nodelay(i32 noundef %4, i32 noundef 1) #12
  %.not13.i = icmp eq i32 %22, 0
  br i1 %.not13.i, label %._crit_edge.i, label %uv__stream_open.exit

._crit_edge.i:                                    ; preds = %21
  %.pre.i = load i32, ptr %15, align 8
  br label %23

23:                                               ; preds = %._crit_edge.i, %19
  %24 = phi i32 [ %.pre.i, %._crit_edge.i ], [ %17, %19 ]
  %25 = and i32 %24, 33554432
  %.not14.i = icmp eq i32 %25, 0
  br i1 %.not14.i, label %uv__stream_open.exit.thread, label %26

26:                                               ; preds = %23
  %27 = tail call i32 @uv__tcp_keepalive(i32 noundef %4, i32 noundef 1, i32 noundef 60) #12
  %.not15.i = icmp eq i32 %27, 0
  br i1 %.not15.i, label %uv__stream_open.exit.thread, label %uv__stream_open.exit

uv__stream_open.exit.thread:                      ; preds = %14, %23, %26
  store i32 %4, ptr %10, align 8
  br label %.thread

uv__stream_open.exit:                             ; preds = %26, %21
  %28 = tail call ptr @__errno_location() #13
  %.pn = load i32, ptr %28, align 4
  %.not34 = icmp eq i32 %.pn, 0
  br i1 %.not34, label %.thread, label %uv__stream_open.exit.uv__stream_open.exit.thread38_crit_edge

uv__stream_open.exit.uv__stream_open.exit.thread38_crit_edge: ; preds = %uv__stream_open.exit
  %.0.i = sub nsw i32 0, %.pn
  br label %uv__stream_open.exit.thread38.sink.split

29:                                               ; preds = %6
  %30 = tail call i32 @uv_udp_open(ptr noundef nonnull %1, i32 noundef %4) #12
  %.not = icmp eq i32 %30, 0
  br i1 %.not, label %.thread, label %uv__stream_open.exit.thread38.sink.split

uv__stream_open.exit.thread38.sink.split:         ; preds = %29, %uv__stream_open.exit.uv__stream_open.exit.thread38_crit_edge
  %.026.ph = phi i32 [ %.0.i, %uv__stream_open.exit.uv__stream_open.exit.thread38_crit_edge ], [ %30, %29 ]
  %.pre = load i32, ptr %3, align 4
  br label %uv__stream_open.exit.thread38

uv__stream_open.exit.thread38:                    ; preds = %uv__stream_open.exit.thread38.sink.split, %9
  %.sink = phi i32 [ %4, %9 ], [ %.pre, %uv__stream_open.exit.thread38.sink.split ]
  %.026 = phi i32 [ -16, %9 ], [ %.026.ph, %uv__stream_open.exit.thread38.sink.split ]
  %31 = tail call i32 @uv__close(i32 noundef %.sink) #12
  %32 = getelementptr inbounds nuw i8, ptr %0, i64 240
  %33 = load ptr, ptr %32, align 8
  %.not35 = icmp eq ptr %33, null
  br i1 %.not35, label %53, label %39

.thread:                                          ; preds = %uv__stream_open.exit, %29, %uv__stream_open.exit.thread
  %34 = getelementptr inbounds nuw i8, ptr %1, i64 88
  %35 = load i32, ptr %34, align 8
  %36 = or i32 %35, 8192
  store i32 %36, ptr %34, align 8
  %37 = getelementptr inbounds nuw i8, ptr %0, i64 240
  %38 = load ptr, ptr %37, align 8
  %.not3543 = icmp eq ptr %38, null
  br i1 %.not3543, label %54, label %39

39:                                               ; preds = %.thread, %uv__stream_open.exit.thread38
  %40 = phi ptr [ %38, %.thread ], [ %33, %uv__stream_open.exit.thread38 ]
  %41 = phi ptr [ %37, %.thread ], [ %32, %uv__stream_open.exit.thread38 ]
  %.02645 = phi i32 [ 0, %.thread ], [ %.026, %uv__stream_open.exit.thread38 ]
  %42 = getelementptr inbounds nuw i8, ptr %40, i64 8
  %43 = load i32, ptr %42, align 4
  store i32 %43, ptr %3, align 4
  %44 = getelementptr inbounds nuw i8, ptr %40, i64 4
  %45 = load i32, ptr %44, align 4
  %46 = add i32 %45, -1
  store i32 %46, ptr %44, align 4
  %47 = icmp eq i32 %46, 0
  br i1 %47, label %48, label %49

48:                                               ; preds = %39
  tail call void @uv__free(ptr noundef nonnull %40) #12
  store ptr null, ptr %41, align 8
  br label %58

49:                                               ; preds = %39
  %50 = getelementptr inbounds nuw i8, ptr %40, i64 12
  %51 = zext i32 %46 to i64
  %52 = shl nuw nsw i64 %51, 2
  tail call void @llvm.memmove.p0.p0.i64(ptr nonnull align 4 %42, ptr nonnull align 4 %50, i64 %52, i1 false)
  br label %58

53:                                               ; preds = %uv__stream_open.exit.thread38
  store i32 -1, ptr %3, align 4
  br label %58

54:                                               ; preds = %.thread
  store i32 -1, ptr %3, align 4
  %55 = getelementptr inbounds nuw i8, ptr %0, i64 8
  %56 = load ptr, ptr %55, align 8
  %57 = getelementptr inbounds nuw i8, ptr %0, i64 136
  tail call void @uv__io_start(ptr noundef %56, ptr noundef nonnull %57, i32 noundef 1) #12
  br label %58

58:                                               ; preds = %53, %54, %49, %48, %6, %2
  %.0 = phi i32 [ -11, %2 ], [ -22, %6 ], [ %.02645, %48 ], [ %.02645, %49 ], [ %.026, %53 ], [ 0, %54 ]
  ret i32 %.0
}